target datalayout = "e-m:e-p270:32:32-p271:32:32-p272:64:64-i64:64-i128:128-f80:128-n8:16:32:64-S128"
target triple = "x86_64-pc-linux-gnu"

%struct.slurm_conf_t = type { i64, ptr, i16, ptr, ptr, ptr, ptr, ptr, i16, ptr, ptr, ptr, ptr, ptr, ptr, ptr, i16, ptr, ptr, ptr, ptr, i16, ptr, ptr, ptr, i64, ptr, ptr, ptr, ptr, i16, ptr, ptr, i16, i32, ptr, i32, ptr, i32, i32, ptr, ptr, i64, i64, ptr, i16, i16, ptr, i32, i32, ptr, i32, ptr, i32, i16, i16, i16, ptr, i16, i16, ptr, ptr, i32, i16, i16, ptr, i32, i16, ptr, ptr, ptr, ptr, i16, ptr, ptr, ptr, ptr, i32, ptr, ptr, ptr, ptr, i16, i16, ptr, i32, i32, i32, i16, i16, ptr, ptr, i16, ptr, ptr, i32, i32, i32, i32, i32, i64, i32, i32, i16, ptr, ptr, i32, ptr, ptr, ptr, i16, i32, ptr, ptr, i16, ptr, ptr, i32, i16, ptr, ptr, ptr, ptr, i32, i32, i16, i16, i32, ptr, i16, ptr, i32, i32, i32, i32, i32, i32, ptr, i16, ptr, ptr, i32, i16, ptr, i32, i16, i16, ptr, ptr, ptr, i16, ptr, ptr, ptr, ptr, i16, i16, ptr, i16, ptr, i16, ptr, i16, ptr, i16, ptr, ptr, ptr, ptr, i16, ptr, ptr, ptr, i32, ptr, i32, ptr, ptr, i16, ptr, ptr, i32, i16, ptr, ptr, i16, i16, ptr, i16, ptr, ptr, ptr, i32, ptr, i16, i16, ptr, ptr, ptr, ptr, ptr, ptr, ptr, ptr, i16, i32, i16, ptr, ptr, ptr, ptr, i32, ptr, ptr, ptr, i16, ptr, ptr, ptr, i16, ptr, i16, ptr, i16, i16, ptr }
%struct.acct_gather_energy = type { i32, i64, i64, i32, i64, i64, i64 }
%struct.acct_gather_profile_dataset_t = type { ptr, i32 }

@plugin_type = dso_local constant [26 x i8] c"acct_gather_energy/ibmaem\00", align 16
@local_energy = internal global ptr null, align 8
@step = internal global ptr null, align 8
@.str.1 = private unnamed_addr constant [47 x i8] c"acct_gather_energy_p_set_data: unknown enum %d\00", align 1
@slurm_conf = external global %struct.slurm_conf_t, align 8
@__const._send_profile.dataset = private unnamed_addr constant [2 x { ptr, i32, [4 x i8] }] [{ ptr, i32, [4 x i8] } { ptr @.str.4, i32 1, [4 x i8] zeroinitializer }, { ptr, i32, [4 x i8] } zeroinitializer], align 16
@_send_profile.dataset_id = internal global i32 -1, align 4
@.str.5 = private unnamed_addr constant [34 x i8] c"%s: %s: ENERGY: consumed %d watts\00", align 1
@__func__._send_profile = private unnamed_addr constant [14 x i8] c"_send_profile\00", align 1
@.str.6 = private unnamed_addr constant [7 x i8] c"Energy\00", align 1
@.str.7 = private unnamed_addr constant [50 x i8] c"%s: %s: ENERGY: Energy: dataset created (id = %d)\00", align 1
@.str.8 = private unnamed_addr constant [47 x i8] c"Energy: Failed to create the dataset for Power\00", align 1
@.str.9 = private unnamed_addr constant [42 x i8] c"%s: %s: PROFILE: PROFILE-Energy: power=%u\00", align 1
@_running_profile.run = internal global i8 0, align 1
@_running_profile.profile_opt = internal global i32 0, align 4

; Function Attrs: nounwind uwtable
define internal i32 @_running_profile() #0 {
  %1 = load i32, ptr @_running_profile.profile_opt, align 4
  %2 = icmp eq i32 %1, 0
  br i1 %2, label %3, label %11

3:                                                ; preds = %0
  %4 = call i32 @acct_gather_profile_g_get(i32 noundef 2, ptr noundef @_running_profile.profile_opt)
  %5 = load i32, ptr @_running_profile.profile_opt, align 4
  %6 = zext i32 %5 to i64
  %7 = and i64 %6, 2
  %8 = icmp ne i64 %7, 0
  br i1 %8, label %9, label %10

9:                                                ; preds = %3
  store i8 1, ptr @_running_profile.run, align 1
  br label %10

10:                                               ; preds = %9, %3
  br label %11

11:                                               ; preds = %10, %0
  %12 = load i8, ptr @_running_profile.run, align 1, !range !8, !noundef !9
  %13 = trunc i8 %12 to i1
  %14 = zext i1 %13 to i32
  ret i32 %14
}

; Function Attrs: nounwind uwtable
define internal i32 @_send_profile() #0 {
  %1 = alloca i32, align 4
  %2 = alloca i64, align 8
  %3 = alloca [2 x %struct.acct_gather_profile_dataset_t], align 16
  %4 = alloca i32, align 4
  call void @llvm.lifetime.start.p0(i64 8, ptr %2) #5
  call void @llvm.lifetime.start.p0(i64 32, ptr %3) #5
  call void @llvm.memcpy.p0.p0.i64(ptr align 16 %3, ptr align 16 @__const._send_profile.dataset, i64 32, i1 false)
  %5 = call i32 @_running_profile()
  %6 = icmp ne i32 %5, 0
  br i1 %6, label %8, label %7

7:                                                ; preds = %0
  store i32 0, ptr %1, align 4
  store i32 1, ptr %4, align 4
  br label %81

8:                                                ; preds = %0
  br label %9

9:                                                ; preds = %8
  %10 = load i64, ptr getelementptr inbounds nuw (%struct.slurm_conf_t, ptr @slurm_conf, i32 0, i32 42), align 8
  %11 = and i64 %10, 262144
  %12 = icmp ne i64 %11, 0
  br i1 %12, label %13, label %24

13:                                               ; preds = %9
  br label %14

14:                                               ; preds = %13
  %15 = call i32 @slurm_get_log_level()
  %16 = icmp sge i32 %15, 4
  br i1 %16, label %17, label %21

17:                                               ; preds = %14
  %18 = load ptr, ptr @local_energy, align 8
  %19 = getelementptr inbounds nuw %struct.acct_gather_energy, ptr %18, i32 0, i32 3
  %20 = load i32, ptr %19, align 8
  call void (i32, ptr, ...) @slurm_log_var(i32 noundef 4, ptr noundef @.str.5, ptr noundef @plugin_type, ptr noundef @__func__._send_profile, i32 noundef %20)
  br label %21

21:                                               ; preds = %17, %14
  br label %22

22:                                               ; preds = %21
  br label %23

23:                                               ; preds = %22
  br label %24

24:                                               ; preds = %23, %9
  br label %25

25:                                               ; preds = %24
  br label %26

26:                                               ; preds = %25
  %27 = load i32, ptr @_send_profile.dataset_id, align 4
  %28 = icmp slt i32 %27, 0
  br i1 %28, label %29, label %53

29:                                               ; preds = %26
  %30 = getelementptr inbounds [2 x %struct.acct_gather_profile_dataset_t], ptr %3, i64 0, i64 0
  %31 = call i32 @acct_gather_profile_g_create_dataset(ptr noundef @.str.6, i64 noundef -1, ptr noundef %30)
  store i32 %31, ptr @_send_profile.dataset_id, align 4
  br label %32

32:                                               ; preds = %29
  %33 = load i64, ptr getelementptr inbounds nuw (%struct.slurm_conf_t, ptr @slurm_conf, i32 0, i32 42), align 8
  %34 = and i64 %33, 262144
  %35 = icmp ne i64 %34, 0
  br i1 %35, label %36, label %45

36:                                               ; preds = %32
  br label %37

37:                                               ; preds = %36
  %38 = call i32 @slurm_get_log_level()
  %39 = icmp sge i32 %38, 4
  br i1 %39, label %40, label %42

40:                                               ; preds = %37
  %41 = load i32, ptr @_send_profile.dataset_id, align 4
  call void (i32, ptr, ...) @slurm_log_var(i32 noundef 4, ptr noundef @.str.7, ptr noundef @plugin_type, ptr noundef @__func__._send_profile, i32 noundef %41)
  br label %42

42:                                               ; preds = %40, %37
  br label %43

43:                                               ; preds = %42
  br label %44

44:                                               ; preds = %43
  br label %45

45:                                               ; preds = %44, %32
  br label %46

46:                                               ; preds = %45
  br label %47

47:                                               ; preds = %46
  %48 = load i32, ptr @_send_profile.dataset_id, align 4
  %49 = icmp eq i32 %48, -1
  br i1 %49, label %50, label %52

50:                                               ; preds = %47
  %51 = call i32 (ptr, ...) @slurm_error(ptr noundef @.str.8)
  store i32 -1, ptr %1, align 4
  store i32 1, ptr %4, align 4
  br label %81

52:                                               ; preds = %47
  br label %53

53:                                               ; preds = %52, %26
  %54 = load ptr, ptr @local_energy, align 8
  %55 = getelementptr inbounds nuw %struct.acct_gather_energy, ptr %54, i32 0, i32 3
  %56 = load i32, ptr %55, align 8
  %57 = zext i32 %56 to i64
  store i64 %57, ptr %2, align 8
  br label %58

58:                                               ; preds = %53
  %59 = load i64, ptr getelementptr inbounds nuw (%struct.slurm_conf_t, ptr @slurm_conf, i32 0, i32 42), align 8
  %60 = and i64 %59, 2097152
  %61 = icmp ne i64 %60, 0
  br i1 %61, label %62, label %73

62:                                               ; preds = %58
  br label %63

63:                                               ; preds = %62
  %64 = call i32 @slurm_get_log_level()
  %65 = icmp sge i32 %64, 4
  br i1 %65, label %66, label %70

66:                                               ; preds = %63
  %67 = load ptr, ptr @local_energy, align 8
  %68 = getelementptr inbounds nuw %struct.acct_gather_energy, ptr %67, i32 0, i32 3
  %69 = load i32, ptr %68, align 8
  call void (i32, ptr, ...) @slurm_log_var(i32 noundef 4, ptr noundef @.str.9, ptr noundef @plugin_type, ptr noundef @__func__._send_profile, i32 noundef %69)
  br label %70

70:                                               ; preds = %66, %63
  br label %71

71:                                               ; preds = %70
  br label %72

72:                                               ; preds = %71
  br label %73

73:                                               ; preds = %72, %58
  br label %74

74:                                               ; preds = %73
  br label %75

75:                                               ; preds = %74
  %76 = load i32, ptr @_send_profile.dataset_id, align 4
  %77 = load ptr, ptr @local_energy, align 8
  %78 = getelementptr inbounds nuw %struct.acct_gather_energy, ptr %77, i32 0, i32 5
  %79 = load i64, ptr %78, align 8
  %80 = call i32 @acct_gather_profile_g_add_sample_data(i32 noundef %76, ptr noundef %2, i64 noundef %79)
  store i32 %80, ptr %1, align 4
  store i32 1, ptr %4, align 4
  br label %81

81:                                               ; preds = %75, %50, %7
  call void @llvm.lifetime.end.p0(i64 32, ptr %3) #5
  call void @llvm.lifetime.end.p0(i64 8, ptr %2) #5
  %82 = load i32, ptr %1, align 4
  ret i32 %82
}

; Function Attrs: nounwind uwtable
define dso_local i32 @acct_gather_energy_p_set_data(i32 noundef %0, ptr noundef %1) #0 {
  %3 = alloca i32, align 4
  %4 = alloca ptr, align 8
  %5 = alloca i32, align 4
  store i32 %0, ptr %3, align 4
  store ptr %1, ptr %4, align 8
  call void @llvm.lifetime.start.p0(i64 4, ptr %5) #5
  store i32 0, ptr %5, align 4
  %6 = load i32, ptr %3, align 4
  switch i32 %6, label %12 [
    i32 2, label %15
    i32 3, label %7
    i32 8, label %10
  ]

7:                                                ; preds = %2
  %8 = load ptr, ptr @local_energy, align 8
  call void @_get_joules_task(ptr noundef %8)
  %9 = call i32 @_send_profile()
  br label %15

10:                                               ; preds = %2
  %11 = load ptr, ptr %4, align 8
  store ptr %11, ptr @step, align 8
  br label %15

12:                                               ; preds = %2
  %13 = load i32, ptr %3, align 4
  %14 = call i32 (ptr, ...) @slurm_error(ptr noundef @.str.1, i32 noundef %13)
  store i32 -1, ptr %5, align 4
  br label %15

15:                                               ; preds = %12, %10, %7, %2
  %16 = load i32, ptr %5, align 4
  call void @llvm.lifetime.end.p0(i64 4, ptr %5) #5
  ret i32 %16
}